target datalayout = "e-m:e-p270:32:32-p271:32:32-p272:64:64-i64:64-i128:128-f80:128-n8:16:32:64-S128"
target triple = "x86_64-pc-linux-gnu"

%struct.AVBSFContext = type { ptr, ptr, ptr, ptr, ptr, %struct.AVRational, %struct.AVRational }
%struct.AVRational = type { i32, i32 }
%struct.ExtractExtradataContext = type { ptr, ptr, %struct.AV1Packet, %struct.H2645Packet, i32 }
%struct.AV1Packet = type { ptr, i32, i32, i32 }
%struct.H2645Packet = type { ptr, %struct.H2645RBSP, i32, i32, i32 }
%struct.H2645RBSP = type { ptr, ptr, i32, i32 }
%struct.AVPacket = type { ptr, i64, i64, ptr, i32, i32, i32, ptr, i32, i64, i64, ptr, ptr, %struct.AVRational }

; Function Attrs: nounwind uwtable
define internal i32 @extract_extradata_mpeg12(ptr noundef %0, ptr noundef %1, ptr noundef %2, ptr noundef %3) #0 {
  %5 = alloca i32, align 4
  %6 = alloca ptr, align 8
  %7 = alloca ptr, align 8
  %8 = alloca ptr, align 8
  %9 = alloca ptr, align 8
  %10 = alloca ptr, align 8
  %11 = alloca i32, align 4
  %12 = alloca i32, align 4
  %13 = alloca i32, align 4
  %14 = alloca i32, align 4
  store ptr %0, ptr %6, align 8, !tbaa !4
  store ptr %1, ptr %7, align 8, !tbaa !39
  store ptr %2, ptr %8, align 8, !tbaa !42
  store ptr %3, ptr %9, align 8, !tbaa !45
  call void @llvm.lifetime.start.p0(i64 8, ptr %10) #9
  %15 = load ptr, ptr %6, align 8, !tbaa !4
  %16 = getelementptr inbounds nuw %struct.AVBSFContext, ptr %15, i32 0, i32 2
  %17 = load ptr, ptr %16, align 8, !tbaa !9
  store ptr %17, ptr %10, align 8, !tbaa !16
  call void @llvm.lifetime.start.p0(i64 4, ptr %11) #9
  store i32 -1, ptr %11, align 4, !tbaa !18
  call void @llvm.lifetime.start.p0(i64 4, ptr %12) #9
  call void @llvm.lifetime.start.p0(i64 4, ptr %13) #9
  store i32 0, ptr %13, align 4, !tbaa !18
  store i32 0, ptr %12, align 4, !tbaa !18
  br label %18

18:                                               ; preds = %95, %4
  %19 = load i32, ptr %12, align 4, !tbaa !18
  %20 = load ptr, ptr %7, align 8, !tbaa !39
  %21 = getelementptr inbounds nuw %struct.AVPacket, ptr %20, i32 0, i32 4
  %22 = load i32, ptr %21, align 8, !tbaa !49
  %23 = icmp slt i32 %19, %22
  br i1 %23, label %24, label %98

24:                                               ; preds = %18
  %25 = load i32, ptr %11, align 4, !tbaa !18
  %26 = shl i32 %25, 8
  %27 = load ptr, ptr %7, align 8, !tbaa !39
  %28 = getelementptr inbounds nuw %struct.AVPacket, ptr %27, i32 0, i32 3
  %29 = load ptr, ptr %28, align 8, !tbaa !47
  %30 = load i32, ptr %12, align 4, !tbaa !18
  %31 = sext i32 %30 to i64
  %32 = getelementptr inbounds i8, ptr %29, i64 %31
  %33 = load i8, ptr %32, align 1, !tbaa !77
  %34 = zext i8 %33 to i32
  %35 = or i32 %26, %34
  store i32 %35, ptr %11, align 4, !tbaa !18
  %36 = load i32, ptr %11, align 4, !tbaa !18
  %37 = icmp eq i32 %36, 435
  br i1 %37, label %38, label %39

38:                                               ; preds = %24
  store i32 1, ptr %13, align 4, !tbaa !18
  br label %94

39:                                               ; preds = %24
  %40 = load i32, ptr %13, align 4, !tbaa !18
  %41 = icmp ne i32 %40, 0
  br i1 %41, label %42, label %93

42:                                               ; preds = %39
  %43 = load i32, ptr %11, align 4, !tbaa !18
  %44 = icmp ne i32 %43, 437
  br i1 %44, label %45, label %93

45:                                               ; preds = %42
  %46 = load i32, ptr %11, align 4, !tbaa !18
  %47 = icmp ult i32 %46, 512
  br i1 %47, label %48, label %93

48:                                               ; preds = %45
  %49 = load i32, ptr %11, align 4, !tbaa !18
  %50 = icmp uge i32 %49, 256
  br i1 %50, label %51, label %93

51:                                               ; preds = %48
  %52 = load i32, ptr %12, align 4, !tbaa !18
  %53 = sub nsw i32 %52, 3
  %54 = load ptr, ptr %9, align 8, !tbaa !45
  store i32 %53, ptr %54, align 4, !tbaa !18
  %55 = load ptr, ptr %9, align 8, !tbaa !45
  %56 = load i32, ptr %55, align 4, !tbaa !18
  %57 = add nsw i32 %56, 64
  %58 = sext i32 %57 to i64
  %59 = call noalias ptr @av_malloc(i64 noundef %58)
  %60 = load ptr, ptr %8, align 8, !tbaa !42
  store ptr %59, ptr %60, align 8, !tbaa !41
  %61 = load ptr, ptr %8, align 8, !tbaa !42
  %62 = load ptr, ptr %61, align 8, !tbaa !41
  %63 = icmp ne ptr %62, null
  br i1 %63, label %65, label %64

64:                                               ; preds = %51
  store i32 -12, ptr %5, align 4
  store i32 1, ptr %14, align 4
  br label %99

65:                                               ; preds = %51
  %66 = load ptr, ptr %8, align 8, !tbaa !42
  %67 = load ptr, ptr %66, align 8, !tbaa !41
  %68 = load ptr, ptr %7, align 8, !tbaa !39
  %69 = getelementptr inbounds nuw %struct.AVPacket, ptr %68, i32 0, i32 3
  %70 = load ptr, ptr %69, align 8, !tbaa !47
  %71 = load ptr, ptr %9, align 8, !tbaa !45
  %72 = load i32, ptr %71, align 4, !tbaa !18
  %73 = sext i32 %72 to i64
  call void @llvm.memcpy.p0.p0.i64(ptr align 1 %67, ptr align 1 %70, i64 %73, i1 false)
  %74 = load ptr, ptr %10, align 8, !tbaa !16
  %75 = getelementptr inbounds nuw %struct.ExtractExtradataContext, ptr %74, i32 0, i32 4
  %76 = load i32, ptr %75, align 8, !tbaa !56
  %77 = icmp ne i32 %76, 0
  br i1 %77, label %78, label %92

78:                                               ; preds = %65
  %79 = load ptr, ptr %9, align 8, !tbaa !45
  %80 = load i32, ptr %79, align 4, !tbaa !18
  %81 = load ptr, ptr %7, align 8, !tbaa !39
  %82 = getelementptr inbounds nuw %struct.AVPacket, ptr %81, i32 0, i32 3
  %83 = load ptr, ptr %82, align 8, !tbaa !47
  %84 = sext i32 %80 to i64
  %85 = getelementptr inbounds i8, ptr %83, i64 %84
  store ptr %85, ptr %82, align 8, !tbaa !47
  %86 = load ptr, ptr %9, align 8, !tbaa !45
  %87 = load i32, ptr %86, align 4, !tbaa !18
  %88 = load ptr, ptr %7, align 8, !tbaa !39
  %89 = getelementptr inbounds nuw %struct.AVPacket, ptr %88, i32 0, i32 4
  %90 = load i32, ptr %89, align 8, !tbaa !49
  %91 = sub nsw i32 %90, %87
  store i32 %91, ptr %89, align 8, !tbaa !49
  br label %92

92:                                               ; preds = %78, %65
  br label %98

93:                                               ; preds = %48, %45, %42, %39
  br label %94

94:                                               ; preds = %93, %38
  br label %95

95:                                               ; preds = %94
  %96 = load i32, ptr %12, align 4, !tbaa !18
  %97 = add nsw i32 %96, 1
  store i32 %97, ptr %12, align 4, !tbaa !18
  br label %18, !llvm.loop !78

98:                                               ; preds = %92, %18
  store i32 0, ptr %5, align 4
  store i32 1, ptr %14, align 4
  br label %99

99:                                               ; preds = %98, %64
  call void @llvm.lifetime.end.p0(i64 4, ptr %13) #9
  call void @llvm.lifetime.end.p0(i64 4, ptr %12) #9
  call void @llvm.lifetime.end.p0(i64 4, ptr %11) #9
  call void @llvm.lifetime.end.p0(i64 8, ptr %10) #9
  %100 = load i32, ptr %5, align 4
  ret i32 %100
}