; Function Attrs: nounwind uwtable
define internal range(i32 -12, 1) i32 @extract_extradata_mpeg12(ptr noundef readonly captures(none) %0, ptr noundef captures(none) %1, ptr noundef writeonly captures(none) %2, ptr noundef captures(none) %3) #1 {
  %5 = getelementptr inbounds nuw i8, ptr %0, i64 16
  %6 = load ptr, ptr %5, align 8, !tbaa !4
  %7 = getelementptr inbounds nuw i8, ptr %1, i64 32
  %8 = load i32, ptr %7, align 8, !tbaa !38
  %9 = icmp sgt i32 %8, 0
  br i1 %9, label %.lr.ph, label %.loopexit

.lr.ph:                                           ; preds = %4
  %10 = getelementptr inbounds nuw i8, ptr %1, i64 24
  %11 = load ptr, ptr %10, align 8, !tbaa !36
  %wide.trip.count = zext nneg i32 %8 to i64
  br label %12

12:                                               ; preds = %.lr.ph, %40
  %indvars.iv = phi i64 [ 0, %.lr.ph ], [ %indvars.iv.next, %40 ]
  %.041 = phi i32 [ 0, %.lr.ph ], [ %.1, %40 ]
  %.03139 = phi i32 [ -1, %.lr.ph ], [ %17, %40 ]
  %13 = shl i32 %.03139, 8
  %14 = getelementptr inbounds nuw i8, ptr %11, i64 %indvars.iv
  %15 = load i8, ptr %14, align 1, !tbaa !46
  %16 = zext i8 %15 to i32
  %17 = or disjoint i32 %13, %16
  %18 = icmp eq i32 %17, 435
  br i1 %18, label %40, label %19

19:                                               ; preds = %12
  %20 = icmp ne i32 %.041, 0
  %21 = icmp ne i32 %17, 437
  %or.cond = and i1 %20, %21
  %22 = add i32 %13, -1
  %23 = icmp ult i32 %22, 511
  %or.cond5 = and i1 %23, %or.cond
  br i1 %or.cond5, label %24, label %40

24:                                               ; preds = %19
  %25 = trunc nuw nsw i64 %indvars.iv to i32
  %26 = add nsw i32 %25, -3
  store i32 %26, ptr %3, align 4, !tbaa !35
  %27 = add nuw i64 %indvars.iv, 61
  %28 = and i64 %27, 4294967295
  %29 = tail call noalias ptr @av_malloc(i64 noundef %28) #8
  store ptr %29, ptr %2, align 8, !tbaa !34
  %.not = icmp eq ptr %29, null
  br i1 %.not, label %.loopexit, label %30

30:                                               ; preds = %24
  %31 = load ptr, ptr %10, align 8, !tbaa !36
  %32 = load i32, ptr %3, align 4, !tbaa !35
  %33 = sext i32 %32 to i64
  tail call void @llvm.memcpy.p0.p0.i64(ptr nonnull align 1 %29, ptr align 1 %31, i64 %33, i1 false)
  %34 = getelementptr inbounds nuw i8, ptr %6, i64 88
  %35 = load i32, ptr %34, align 8, !tbaa !49
  %.not35 = icmp eq i32 %35, 0
  br i1 %.not35, label %.loopexit, label %36

36:                                               ; preds = %30
  %37 = getelementptr inbounds i8, ptr %31, i64 %33
  store ptr %37, ptr %10, align 8, !tbaa !36
  %38 = load i32, ptr %7, align 8, !tbaa !38
  %39 = sub nsw i32 %38, %32
  store i32 %39, ptr %7, align 8, !tbaa !38
  br label %.loopexit

40:                                               ; preds = %12, %19
  %.1 = phi i32 [ %.041, %19 ], [ 1, %12 ]
  %indvars.iv.next = add nuw nsw i64 %indvars.iv, 1
  %exitcond.not = icmp eq i64 %indvars.iv.next, %wide.trip.count
  br i1 %exitcond.not, label %.loopexit, label %12, !llvm.loop !68

.loopexit:                                        ; preds = %40, %4, %36, %30, %24
  %.032 = phi i32 [ -12, %24 ], [ 0, %30 ], [ 0, %36 ], [ 0, %4 ], [ 0, %40 ]
  ret i32 %.032
}